Certificate:
    Data:
        Version: 3 (0x2)
        Serial Number: 3 (0x3)
        Signature Algorithm: sha1WithRSAEncryption
        Issuer: C=FR, ST=Alsace, L=Strasbourg, O=www.freelan.org, OU=freelan, CN=Freelan Sample Certificate Authority/emailAddress=contact@freelan.org
        Validity
            Not Before: Apr 27 10:54:53 2012 GMT
            Not After : Apr 25 10:54:53 2022 GMT
        Subject: C=FR, ST=Alsace, O=www.freelan.org, OU=freelan, CN=carol/emailAddress=contact@freelan.org
        Subject Public Key Info:
            Public Key Algorithm: rsaEncryption
                Public-Key: (4096 bit)
                Modulus:
                    00:d7:c0:a7:c6:e9:48:c4:53:40:b3:76:d9:2f:37:
                    28:3d:a3:c4:42:d0:76:cd:08:9b:50:e3:1c:51:e5:
                    14:72:fa:2b:a0:b1:06:23:f3:c1:ad:92:7c:79:fe:
                    15:54:d1:e5:67:62:da:ed:81:aa:7e:e2:b1:50:a9:
                    fb:d8:29:09:da:84:4d:3c:f4:6e:13:ab:0b:d5:ee:
                    80:63:32:7d:57:af:83:3c:1c:27:ed:ec:67:d6:fd:
                    1c:13:2d:40:bf:d1:da:bf:7a:b6:67:7e:b0:75:3b:
                    6d:61:9d:cc:6c:1a:97:f1:56:de:9f:80:d3:16:60:
                    bb:8a:6f:46:9b:be:34:75:c3:4c:d2:f1:c8:f3:3e:
                    98:28:30:e4:cb:2d:25:61:62:48:be:2e:dc:ed:90:
                    93:ae:74:b7:fa:49:43:65:20:ac:8e:fe:52:6c:00:
                    8e:51:3e:b6:9a:c6:4f:44:1c:7b:84:17:bd:5c:f6:
                    36:e9:4c:91:89:6f:4e:ad:ac:10:41:c5:c5:65:8a:
                    20:c8:f7:27:a3:ea:ac:5b:74:09:99:27:88:60:c7:
                    44:69:18:0c:32:1a:77:f2:47:53:46:e3:12:c5:69:
                    95:45:15:9a:14:60:76:20:a7:b5:8c:51:bf:5a:57:
                    19:5a:c7:a8:bc:0b:c4:30:ca:0b:e6:d0:f8:c4:a8:
                    84:d9:24:a2:92:f6:84:f2:13:ea:a4:93:97:fe:ed:
                    77:d8:2f:75:7a:2c:39:88:3c:44:56:0a:ef:12:57:
                    d5:9e:8f:35:8e:7f:84:e7:1a:d1:19:8d:23:db:b5:
                    ce:c5:7f:e1:88:6d:04:d6:01:de:f0:72:3e:51:95:
                    1d:4f:30:b6:32:0a:0f:84:b5:00:34:e4:bf:80:71:
                    10:62:14:c1:32:5a:a9:a6:de:c2:58:e8:52:eb:66:
                    5a:b8:5e:c2:06:7c:a6:6a:33:f2:1e:8a:41:07:53:
                    bb:6b:41:92:59:85:79:04:a9:df:56:4c:e0:62:1e:
                    98:87:95:07:b1:10:49:34:9c:90:4c:0b:83:25:27:
                    9f:01:27:fb:d0:c4:6e:50:cc:f5:02:47:2c:45:9a:
                    31:e5:ce:7d:86:8f:db:fd:83:ea:a6:00:49:71:14:
                    44:a1:8e:9d:ba:a4:a4:cf:9d:15:20:2d:67:76:42:
                    81:63:a2:76:4e:4b:22:b5:de:3d:d8:f8:e0:43:7f:
                    a3:10:f0:73:fb:6e:e1:6a:37:99:dc:87:a3:05:4c:
                    29:f5:63:14:9b:eb:a3:3a:9b:2b:b4:51:f5:05:03:
                    de:41:e5:cb:1a:8e:76:eb:47:93:53:90:71:c5:8f:
                    86:5f:9e:0b:4d:33:9c:3c:88:8a:90:9f:90:a6:35:
                    90:81:f1
                Exponent: 65537 (0x10001)
        X509v3 extensions:
            X509v3 Basic Constraints: 
                CA:FALSE
            Netscape Comment: 
                OpenSSL Generated Certificate
            X509v3 Subject Key Identifier: 
                B5:5D:0D:4F:55:F6:75:1A:23:B3:F5:8C:BC:6B:5A:B6:96:6C:AE:E0
            X509v3 Authority Key Identifier: 
                keyid:23:6C:2D:3D:3E:29:5D:78:B8:6C:3E:AA:E2:BB:2E:1E:6C:87:F2:53

    Signature Algorithm: sha1WithRSAEncryption
        bf:3f:e7:16:a2:ba:b1:cf:d6:79:f3:84:ed:a5:10:3e:60:42:
        0e:d5:1a:c6:e9:b1:39:86:5a:2e:dd:ae:b6:b7:16:33:33:17:
        3e:83:f7:a1:f7:b4:1b:09:74:8f:9b:0d:8e:4c:c7:a1:d6:66:
        6c:02:3a:b5:f2:72:aa:c9:e4:b3:c6:9d:6e:c0:48:dc:39:21:
        30:18:a0:6f:cb:09:be:de:0f:63:83:04:32:73:a7:bc:42:34:
        b7:a1:dc:21:21:08:86:65:bc:2e:c5:78:ae:fb:fe:ab:fb:8b:
        85:bf:61:e0:e2:aa:52:5f:1e:0d:19:22:13:94:7a:b4:bd:5c:
        30:8d:43:22:b4:e9:13:62:7e:3e:f5:e2:7a:2a:3b:da:1f:57:
        4a:5d:b8:6c:4c:f5:6e:34:b9:bd:b4:1f:dc:88:d0:28:20:a2:
        0c:31:e8:7f:3a:23:b8:60:48:c8:4e:e1:02:62:ae:00:fb:d0:
        a5:76:cb:ea:f3:d7:75:0d:9e:56:48:c1:2e:44:c7:0c:9f:03:
        b3:ac:96:c5:a2:a0:06:9e:2b:c3:eb:b5:04:15:33:79:4a:9e:
        28:94:1d:28:50:98:e3:eb:b5:74:69:7f:69:bc:61:72:d1:8a:
        cc:fb:89:be:51:34:81:11:7b:fa:8a:cf:e7:bf:81:91:34:1a:
        11:63:92:41:eb:62:7d:7a:2a:5a:2b:a3:85:36:5b:39:08:40:
        6b:0d:bc:b7:ed:36:42:60:45:ee:0c:27:f1:41:38:9e:db:99:
        8f:0f:ff:1b:ea:02:98:9f:19:21:33:ca:a2:47:89:cb:1d:a9:
        4c:94:b6:3d:b2:e2:bf:1d:f7:12:8d:01:ff:77:d6:72:65:70:
        ca:80:8e:a2:2d:78:0c:b2:9d:84:3a:50:f9:e8:8e:85:03:58:
        eb:0a:d3:5b:d3:55:d0:bd:7d:de:c8:5b:80:ea:0e:53:d6:35:
        86:60:10:ed:bd:06:f4:59:15:64:75:4c:bd:2f:fb:8a:fa:c1:
        d0:c2:d9:68:09:2b:9a:91:c4:00:b1:65:7d:6d:a8:c2:42:d1:
        d7:f1:71:ae:db:96:33:e7:a9:29:27:f3:89:8d:c8:ac:87:14:
        fa:a5:cf:ec:b6:1b:a6:03:93:d7:ef:7f:49:b0:d5:22:fe:9e:
        5a:1b:e1:ff:e9:e3:71:fa:e9:09:3f:b4:1a:33:ae:3a:60:27:
        d2:e6:2f:12:f4:32:54:be:29:be:fc:14:a5:2a:2d:99:88:e0:
        9d:d0:c6:07:e1:76:fb:96:60:0e:4c:d9:93:bd:26:29:2a:8f:
        49:d9:f6:7d:7a:bc:34:31:84:81:4f:28:e1:e8:5e:cf:45:b1:
        c1:8a:2b:e0:52:72:5f:19
-----BEGIN CERTIFICATE-----
MIIGJzCCBA+gAwIBAgIBAzANBgkqhkiG9w0BAQUFADCBsjELMAkGA1UEBhMCRlIx
DzANBgNVBAgMBkFsc2FjZTETMBEGA1UEBwwKU3RyYXNib3VyZzEYMBYGA1UECgwP
d3d3LmZyZWVsYW4ub3JnMRAwDgYDVQQLDAdmcmVlbGFuMS0wKwYDVQQDDCRGcmVl
bGFuIFNhbXBsZSBDZXJ0aWZpY2F0ZSBBdXRob3JpdHkxIjAgBgkqhkiG9w0BCQEW
E2NvbnRhY3RAZnJlZWxhbi5vcmcwHhcNMTIwNDI3MTA1NDUzWhcNMjIwNDI1MTA1
NDUzWjB+MQswCQYDVQQGEwJGUjEPMA0GA1UECAwGQWxzYWNlMRgwFgYDVQQKDA93
d3cuZnJlZWxhbi5vcmcxEDAOBgNVBAsMB2ZyZWVsYW4xDjAMBgNVBAMMBWNhcm9s
MSIwIAYJKoZIhvcNAQkBFhNjb250YWN0QGZyZWVsYW4ub3JnMIICIjANBgkqhkiG
9w0BAQEFAAOCAg8AMIICCgKCAgEA18CnxulIxFNAs3bZLzcoPaPEQtB2zQibUOMc
UeUUcvoroLEGI/PBrZJ8ef4VVNHlZ2La7YGqfuKxUKn72CkJ2oRNPPRuE6sL1e6A
YzJ9V6+DPBwn7exn1v0cEy1Av9Hav3q2Z36wdTttYZ3MbBqX8Vben4DTFmC7im9G
m740dcNM0vHI8z6YKDDkyy0lYWJIvi7c7ZCTrnS3+klDZSCsjv5SbACOUT62msZP
RBx7hBe9XPY26UyRiW9OrawQQcXFZYogyPcno+qsW3QJmSeIYMdEaRgMMhp38kdT
RuMSxWmVRRWaFGB2IKe1jFG/WlcZWseovAvEMMoL5tD4xKiE2SSikvaE8hPqpJOX
/u132C91eiw5iDxEVgrvElfVno81jn+E5xrRGY0j27XOxX/hiG0E1gHe8HI+UZUd
TzC2MgoPhLUANOS/gHEQYhTBMlqppt7CWOhS62ZauF7CBnymajPyHopBB1O7a0GS
WYV5BKnfVkzgYh6Yh5UHsRBJNJyQTAuDJSefASf70MRuUMz1AkcsRZox5c59ho/b
/YPqpgBJcRREoY6duqSkz50VIC1ndkKBY6J2Tksitd492PjgQ3+jEPBz+27hajeZ
3IejBUwp9WMUm+ujOpsrtFH1BQPeQeXLGo5260eTU5BxxY+GX54LTTOcPIiKkJ+Q
pjWQgfECAwEAAaN7MHkwCQYDVR0TBAIwADAsBglghkgBhvhCAQ0EHxYdT3BlblNT
TCBHZW5lcmF0ZWQgQ2VydGlmaWNhdGUwHQYDVR0OBBYEFLVdDU9V9nUaI7P1jLxr
WraWbK7gMB8GA1UdIwQYMBaAFCNsLT0+KV14uGw+quK7Lh5sh/JTMA0GCSqGSIb3
DQEBBQUAA4ICAQC/P+cWorqxz9Z584TtpRA+YEIO1RrG6bE5hlou3a62txYzMxc+
g/eh97QbCXSPmw2OTMeh1mZsAjq18nKqyeSzxp1uwEjcOSEwGKBvywm+3g9jgwQy
c6e8QjS3odwhIQiGZbwuxXiu+/6r+4uFv2Hg4qpSXx4NGSITlHq0vVwwjUMitOkT
Yn4+9eJ6KjvaH1dKXbhsTPVuNLm9tB/ciNAoIKIMMeh/OiO4YEjITuECYq4A+9Cl
dsvq89d1DZ5WSMEuRMcMnwOzrJbFoqAGnivD67UEFTN5Sp4olB0oUJjj67V0aX9p
vGFy0YrM+4m+UTSBEXv6is/nv4GRNBoRY5JB62J9eipaK6OFNls5CEBrDby37TZC
YEXuDCfxQTie25mPD/8b6gKYnxkhM8qiR4nLHalMlLY9suK/HfcSjQH/d9ZyZXDK
gI6iLXgMsp2EOlD56I6FA1jrCtNb01XQvX3eyFuA6g5T1jWGYBDtvQb0WRVkdUy9
L/uK+sHQwtloCSuakcQAsWV9bajCQtHX8XGu25Yz56kpJ/OJjcishxT6pc/sthum
A5PX739JsNUi/p5aG+H/6eNx+ukJP7QaM646YCfS5i8S9DJUvim+/BSlKi2ZiOCd
0MYH4Xb7lmAOTNmTvSYpKo9J2fZ9erw0MYSBTyjh6F7PRbHBiivgUnJfGQ==
-----END CERTIFICATE-----
